target datalayout = "e-m:e-p270:32:32-p271:32:32-p272:64:64-i64:64-i128:128-f80:128-n8:16:32:64-S128"
target triple = "x86_64-pc-linux-gnu"

@.str.14 = private unnamed_addr constant [36 x i8] c"../openssl/test/quic_tserver_test.c\00", align 1
@.str.15 = private unnamed_addr constant [28 x i8] c"Error parsing test options\0A\00", align 1
@.str.16 = private unnamed_addr constant [32 x i8] c"certfile = test_get_argument(0)\00", align 1
@certfile = internal global ptr null, align 8
@.str.17 = private unnamed_addr constant [31 x i8] c"keyfile = test_get_argument(1)\00", align 1
@keyfile = internal global ptr null, align 8
@fake_time_lock = internal global ptr null, align 8
@.str.18 = private unnamed_addr constant [13 x i8] c"test_tserver\00", align 1

; Function Attrs: nounwind uwtable
define dso_local i32 @setup_tests() #0 {
  %1 = alloca i32, align 4
  %2 = call i32 @test_skip_common_options()
  %3 = icmp ne i32 %2, 0
  br i1 %3, label %5, label %4

4:                                                ; preds = %0
  call void (ptr, i32, ptr, ...) @test_error(ptr noundef @.str.14, i32 noundef 423, ptr noundef @.str.15)
  store i32 0, ptr %1, align 4
  br label %19

5:                                                ; preds = %0
  %6 = call ptr @test_get_argument(i64 noundef 0)
  store ptr %6, ptr @certfile, align 8, !tbaa !4
  %7 = call i32 @test_ptr(ptr noundef @.str.14, i32 noundef 427, ptr noundef @.str.16, ptr noundef %6)
  %8 = icmp ne i32 %7, 0
  br i1 %8, label %9, label %13

9:                                                ; preds = %5
  %10 = call ptr @test_get_argument(i64 noundef 1)
  store ptr %10, ptr @keyfile, align 8, !tbaa !4
  %11 = call i32 @test_ptr(ptr noundef @.str.14, i32 noundef 428, ptr noundef @.str.17, ptr noundef %10)
  %12 = icmp ne i32 %11, 0
  br i1 %12, label %14, label %13

13:                                               ; preds = %9, %5
  store i32 0, ptr %1, align 4
  br label %19

14:                                               ; preds = %9
  %15 = call ptr @CRYPTO_THREAD_lock_new()
  store ptr %15, ptr @fake_time_lock, align 8, !tbaa !9
  %16 = icmp eq ptr %15, null
  br i1 %16, label %17, label %18

17:                                               ; preds = %14
  store i32 0, ptr %1, align 4
  br label %19

18:                                               ; preds = %14
  call void @add_all_tests(ptr noundef @.str.18, ptr noundef @test_tserver, i32 noundef 8, i32 noundef 1)
  store i32 1, ptr %1, align 4
  br label %19

19:                                               ; preds = %18, %17, %13, %4
  %20 = load i32, ptr %1, align 4
  ret i32 %20
}