; Function Attrs: nounwind uwtable
define dso_local range(i32 0, 2) i32 @setup_tests() local_unnamed_addr #1 {
  %1 = tail call i32 @test_skip_common_options() #7
  %.not = icmp eq i32 %1, 0
  br i1 %.not, label %2, label %3

2:                                                ; preds = %0
  tail call void (ptr, i32, ptr, ...) @test_error(ptr noundef nonnull @.str.14, i32 noundef 423, ptr noundef nonnull @.str.15) #7
  br label %13

3:                                                ; preds = %0
  %4 = tail call ptr @test_get_argument(i64 noundef 0) #7
  store ptr %4, ptr @certfile, align 8, !tbaa !4
  %5 = tail call i32 @test_ptr(ptr noundef nonnull @.str.14, i32 noundef 427, ptr noundef nonnull @.str.16, ptr noundef %4) #7
  %.not1 = icmp eq i32 %5, 0
  br i1 %.not1, label %13, label %6

6:                                                ; preds = %3
  %7 = tail call ptr @test_get_argument(i64 noundef 1) #7
  store ptr %7, ptr @keyfile, align 8, !tbaa !4
  %8 = tail call i32 @test_ptr(ptr noundef nonnull @.str.14, i32 noundef 428, ptr noundef nonnull @.str.17, ptr noundef %7) #7
  %.not2 = icmp eq i32 %8, 0
  br i1 %.not2, label %13, label %9

9:                                                ; preds = %6
  %10 = tail call ptr @CRYPTO_THREAD_lock_new() #7
  store ptr %10, ptr @fake_time_lock, align 8, !tbaa !9
  %11 = icmp eq ptr %10, null
  br i1 %11, label %13, label %12

12:                                               ; preds = %9
  tail call void @add_all_tests(ptr noundef nonnull @.str.18, ptr noundef nonnull @test_tserver, i32 noundef 8, i32 noundef 1) #7
  br label %13

13:                                               ; preds = %9, %3, %6, %12, %2
  %.0 = phi i32 [ 1, %12 ], [ 0, %2 ], [ 0, %6 ], [ 0, %3 ], [ 0, %9 ]
  ret i32 %.0
}